; Function Attrs: null_pointer_is_valid sspstrong uwtable
define internal fastcc void @add_ipv4_src_address(ptr noundef %0, ptr noundef %1, ptr noundef initializes((160, 184), (208, 232)) %2, ptr noundef %3) unnamed_addr #0 {
  %5 = getelementptr inbounds nuw i8, ptr %2, i64 160
  %6 = tail call ptr @tvb_get_ptr(ptr noundef %1, i32 noundef 0, i32 noundef 4)
  store i32 2, ptr %5, align 8
  %7 = getelementptr inbounds nuw i8, ptr %2, i64 164
  store i32 4, ptr %7, align 4
  %8 = getelementptr inbounds nuw i8, ptr %2, i64 168
  store ptr %6, ptr %8, align 8
  %9 = getelementptr inbounds nuw i8, ptr %2, i64 176
  store ptr null, ptr %9, align 8
  %10 = getelementptr inbounds nuw i8, ptr %2, i64 208
  store i32 2, ptr %10, align 8
  %11 = getelementptr inbounds nuw i8, ptr %2, i64 212
  store i32 4, ptr %11, align 4
  %12 = getelementptr inbounds nuw i8, ptr %2, i64 216
  store ptr %6, ptr %12, align 8
  %13 = getelementptr inbounds nuw i8, ptr %2, i64 224
  store ptr null, ptr %13, align 8
  %.not = icmp eq ptr %0, null
  br i1 %.not, label %proto_item_set_hidden.exit38, label %14

14:                                               ; preds = %4
  %15 = load i32, ptr %6, align 1
  %16 = tail call ptr @get_hostname(i32 noundef %15)
  %17 = getelementptr inbounds nuw i8, ptr %2, i64 408
  %18 = load ptr, ptr %17, align 8
  %19 = tail call ptr @address_with_resolution_to_str(ptr noundef %18, ptr noundef nonnull %5)
  tail call void (ptr, ptr, ...) @proto_item_append_text(ptr noundef %3, ptr noundef nonnull @.str.381, ptr noundef %19)
  %20 = load i32, ptr @hf_ip_src, align 4
  %21 = tail call ptr @proto_tree_add_ipv4(ptr noundef nonnull %0, i32 noundef %20, ptr noundef %1, i32 noundef 0, i32 noundef 4, i32 noundef %15)
  %22 = load i32, ptr @hf_ip_addr, align 4
  %23 = tail call ptr @proto_tree_add_ipv4(ptr noundef nonnull %0, i32 noundef %22, ptr noundef %1, i32 noundef 0, i32 noundef 4, i32 noundef %15)
  %.not.i = icmp eq ptr %23, null
  br i1 %.not.i, label %proto_item_set_hidden.exit, label %24

24:                                               ; preds = %14
  %25 = getelementptr inbounds nuw i8, ptr %23, i64 40
  %26 = load ptr, ptr %25, align 8
  %.not5.i = icmp eq ptr %26, null
  br i1 %.not5.i, label %proto_item_set_hidden.exit, label %27

27:                                               ; preds = %24
  %28 = getelementptr inbounds nuw i8, ptr %26, i64 28
  %29 = load i32, ptr %28, align 4
  %30 = or i32 %29, 1
  store i32 %30, ptr %28, align 4
  br label %proto_item_set_hidden.exit

proto_item_set_hidden.exit:                       ; preds = %14, %24, %27
  %31 = load i32, ptr @hf_ip_src_host, align 4
  %32 = tail call ptr @proto_tree_add_string(ptr noundef nonnull %0, i32 noundef %31, ptr noundef %1, i32 noundef 0, i32 noundef 4, ptr noundef %16)
  %.not.i28 = icmp eq ptr %32, null
  br i1 %.not.i28, label %proto_item_set_hidden.exit32, label %33

33:                                               ; preds = %proto_item_set_hidden.exit
  %34 = getelementptr inbounds nuw i8, ptr %32, i64 40
  %35 = load ptr, ptr %34, align 8
  %.not5.i29 = icmp eq ptr %35, null
  br i1 %.not5.i29, label %proto_item_set_hidden.exit32, label %36

36:                                               ; preds = %33
  %37 = getelementptr inbounds nuw i8, ptr %35, i64 28
  %38 = load i32, ptr %37, align 4
  %39 = or i32 %38, 2
  store i32 %39, ptr %37, align 4
  %.pre = load ptr, ptr %34, align 8
  %.not5.i31 = icmp eq ptr %.pre, null
  br i1 %.not5.i31, label %proto_item_set_hidden.exit32, label %40

40:                                               ; preds = %36
  %41 = getelementptr inbounds nuw i8, ptr %.pre, i64 28
  %42 = load i32, ptr %41, align 4
  %43 = or i32 %42, 1
  store i32 %43, ptr %41, align 4
  br label %proto_item_set_hidden.exit32

proto_item_set_hidden.exit32:                     ; preds = %33, %proto_item_set_hidden.exit, %36, %40
  %44 = load i32, ptr @hf_ip_host, align 4
  %45 = tail call ptr @proto_tree_add_string(ptr noundef nonnull %0, i32 noundef %44, ptr noundef %1, i32 noundef 0, i32 noundef 4, ptr noundef %16)
  %.not.i33 = icmp eq ptr %45, null
  br i1 %.not.i33, label %proto_item_set_hidden.exit38, label %46

46:                                               ; preds = %proto_item_set_hidden.exit32
  %47 = getelementptr inbounds nuw i8, ptr %45, i64 40
  %48 = load ptr, ptr %47, align 8
  %.not5.i34 = icmp eq ptr %48, null
  br i1 %.not5.i34, label %proto_item_set_hidden.exit38, label %49

49:                                               ; preds = %46
  %50 = getelementptr inbounds nuw i8, ptr %48, i64 28
  %51 = load i32, ptr %50, align 4
  %52 = or i32 %51, 2
  store i32 %52, ptr %50, align 4
  %.pre39 = load ptr, ptr %47, align 8
  %.not5.i37 = icmp eq ptr %.pre39, null
  br i1 %.not5.i37, label %proto_item_set_hidden.exit38, label %53

53:                                               ; preds = %49
  %54 = getelementptr inbounds nuw i8, ptr %.pre39, i64 28
  %55 = load i32, ptr %54, align 4
  %56 = or i32 %55, 1
  store i32 %56, ptr %54, align 4
  br label %proto_item_set_hidden.exit38

proto_item_set_hidden.exit38:                     ; preds = %46, %53, %49, %proto_item_set_hidden.exit32, %4
  ret void
}